target datalayout = "e-m:e-p270:32:32-p271:32:32-p272:64:64-i64:64-i128:128-f80:128-n8:16:32:64-S128"
target triple = "x86_64-pc-linux-gnu"

%struct.H5D_layout_ops_t = type { ptr, ptr, ptr, ptr, ptr, ptr, ptr, ptr, ptr, ptr, ptr, ptr, ptr }
%struct.H5D_dset_io_info_t = type { ptr, ptr, %struct.H5D_layout_ops_t, %union.H5_flexible_const_ptr_t, %struct.H5D_io_ops_t, ptr, i64, ptr, ptr, %union.anon.8, ptr, %struct.H5D_type_info_t, i8 }
%union.H5_flexible_const_ptr_t = type { ptr }
%struct.H5D_io_ops_t = type { ptr, ptr, ptr, ptr }
%union.anon.8 = type { ptr }
%struct.H5D_type_info_t = type { ptr, ptr, ptr, ptr, ptr, i64, i64, i8, i8, ptr, i32, i64 }
%struct.H5D_compact_storage_t = type { ptr, ptr }
%struct.H5D_io_info_t = type { ptr, %struct.H5D_md_io_ops_t, i32, i64, i64, ptr, i64, i64, i64, ptr, ptr, ptr, ptr, ptr, ptr, ptr, i64, %union.H5_flexible_const_ptr_t, i32, ptr, i8, i64, ptr, i8, i64, i64, i8, i8, i32 }
%struct.H5D_md_io_ops_t = type { ptr, ptr, ptr, ptr }
%struct.H5D_compact_iovv_memmanage_ud_t = type { ptr, ptr, ptr }

@H5D_init_g = external global i8, align 1
@H5_libterm_g = external global i8, align 1
@.str = private unnamed_addr constant [104 x i8] c"generated/home/dtcxzyw/WorkSpace/Projects/compilers/llvm-opt-benchmark/bench/hdf5/hdf5/src/H5Dcompact.c\00", align 1
@__func__.H5D__compact_readvv = private unnamed_addr constant [20 x i8] c"H5D__compact_readvv\00", align 1
@H5E_IO_g = external global i64, align 8
@H5E_WRITEERROR_g = external global i64, align 8
@.str.23 = private unnamed_addr constant [25 x i8] c"vectorized memcpy failed\00", align 1

; Function Attrs: nounwind uwtable
define internal i64 @H5D__compact_readvv(ptr noundef %0, ptr noundef %1, i64 noundef %2, ptr noundef %3, ptr noundef %4, ptr noundef %5, i64 noundef %6, ptr noundef %7, ptr noundef %8, ptr noundef %9) #0 {
  %11 = alloca i64, align 8
  %12 = alloca ptr, align 8
  %13 = alloca ptr, align 8
  %14 = alloca i64, align 8
  %15 = alloca ptr, align 8
  %16 = alloca ptr, align 8
  %17 = alloca ptr, align 8
  %18 = alloca i64, align 8
  %19 = alloca ptr, align 8
  %20 = alloca ptr, align 8
  %21 = alloca ptr, align 8
  %22 = alloca i64, align 8
  %23 = alloca i8, align 1
  %24 = alloca %struct.H5D_compact_iovv_memmanage_ud_t, align 8
  %25 = alloca i32, align 4
  store ptr %0, ptr %12, align 8, !tbaa !57
  store ptr %1, ptr %13, align 8, !tbaa !59
  store i64 %2, ptr %14, align 8, !tbaa !49
  store ptr %3, ptr %15, align 8, !tbaa !79
  store ptr %4, ptr %16, align 8, !tbaa !79
  store ptr %5, ptr %17, align 8, !tbaa !79
  store i64 %6, ptr %18, align 8, !tbaa !49
  store ptr %7, ptr %19, align 8, !tbaa !79
  store ptr %8, ptr %20, align 8, !tbaa !79
  store ptr %9, ptr %21, align 8, !tbaa !79
  call void @llvm.lifetime.start.p0(i64 8, ptr %22) #6
  store i64 -1, ptr %22, align 8, !tbaa !49
  call void @llvm.lifetime.start.p0(i64 1, ptr %23) #6
  store i8 0, ptr %23, align 1, !tbaa !12
  %26 = load i8, ptr @H5D_init_g, align 1, !tbaa !12, !range !14, !noundef !15
  %27 = trunc i8 %26 to i1
  br i1 %27, label %32, label %28

28:                                               ; preds = %10
  %29 = load i8, ptr @H5_libterm_g, align 1, !tbaa !12, !range !14, !noundef !15
  %30 = trunc i8 %29 to i1
  %31 = xor i1 %30, true
  br label %32

32:                                               ; preds = %28, %10
  %33 = phi i1 [ true, %10 ], [ %31, %28 ]
  %34 = xor i1 %33, true
  %35 = xor i1 %34, true
  %36 = zext i1 %35 to i32
  %37 = sext i32 %36 to i64
  %38 = call i64 @llvm.expect.i64(i64 %37, i64 1)
  %39 = icmp ne i64 %38, 0
  br i1 %39, label %40, label %134

40:                                               ; preds = %32
  %41 = load ptr, ptr %12, align 8, !tbaa !57
  %42 = getelementptr inbounds nuw %struct.H5D_io_info_t, ptr %41, i32 0, i32 0
  %43 = load ptr, ptr %42, align 8, !tbaa !80
  %44 = call zeroext i1 @H5F_shared_has_feature(ptr noundef %43, i32 noundef 65536)
  br i1 %44, label %45, label %93

45:                                               ; preds = %40
  call void @llvm.lifetime.start.p0(i64 24, ptr %24) #6
  %46 = load ptr, ptr %12, align 8, !tbaa !57
  %47 = getelementptr inbounds nuw %struct.H5D_io_info_t, ptr %46, i32 0, i32 0
  %48 = load ptr, ptr %47, align 8, !tbaa !80
  %49 = getelementptr inbounds nuw %struct.H5D_compact_iovv_memmanage_ud_t, ptr %24, i32 0, i32 0
  store ptr %48, ptr %49, align 8, !tbaa !81
  %50 = load ptr, ptr %13, align 8, !tbaa !59
  %51 = getelementptr inbounds nuw %struct.H5D_dset_io_info_t, ptr %50, i32 0, i32 3
  %52 = load ptr, ptr %51, align 8, !tbaa !54
  %53 = getelementptr inbounds nuw %struct.H5D_compact_iovv_memmanage_ud_t, ptr %24, i32 0, i32 1
  store ptr %52, ptr %53, align 8, !tbaa !83
  %54 = load ptr, ptr %13, align 8, !tbaa !59
  %55 = getelementptr inbounds nuw %struct.H5D_dset_io_info_t, ptr %54, i32 0, i32 1
  %56 = load ptr, ptr %55, align 8, !tbaa !70
  %57 = getelementptr inbounds nuw %struct.H5D_compact_storage_t, ptr %56, i32 0, i32 0
  %58 = load ptr, ptr %57, align 8, !tbaa !54
  %59 = getelementptr inbounds nuw %struct.H5D_compact_iovv_memmanage_ud_t, ptr %24, i32 0, i32 2
  store ptr %58, ptr %59, align 8, !tbaa !84
  %60 = load i64, ptr %18, align 8, !tbaa !49
  %61 = load ptr, ptr %19, align 8, !tbaa !79
  %62 = load ptr, ptr %20, align 8, !tbaa !79
  %63 = load ptr, ptr %21, align 8, !tbaa !79
  %64 = load i64, ptr %14, align 8, !tbaa !49
  %65 = load ptr, ptr %15, align 8, !tbaa !79
  %66 = load ptr, ptr %16, align 8, !tbaa !79
  %67 = load ptr, ptr %17, align 8, !tbaa !79
  %68 = call i64 @H5VM_opvv(i64 noundef %60, ptr noundef %61, ptr noundef %62, ptr noundef %63, i64 noundef %64, ptr noundef %65, ptr noundef %66, ptr noundef %67, ptr noundef @H5D__compact_iovv_memmanage_cb, ptr noundef %24)
  store i64 %68, ptr %22, align 8, !tbaa !49
  %69 = icmp slt i64 %68, 0
  br i1 %69, label %70, label %89

70:                                               ; preds = %45
  br label %71

71:                                               ; preds = %70
  br label %72

72:                                               ; preds = %71
  br label %73

73:                                               ; preds = %72
  %74 = load i64, ptr @H5E_IO_g, align 8, !tbaa !49
  %75 = load i64, ptr @H5E_WRITEERROR_g, align 8, !tbaa !49
  %76 = call i32 (ptr, ptr, i32, i64, i64, ptr, ...) @H5E_printf_stack(ptr noundef @.str, ptr noundef @__func__.H5D__compact_readvv, i32 noundef 388, i64 noundef %74, i64 noundef %75, ptr noundef @.str.23)
  br label %77

77:                                               ; preds = %73
  br label %78

78:                                               ; preds = %77
  store i8 1, ptr %23, align 1, !tbaa !12
  %79 = load i8, ptr %23, align 1, !tbaa !12, !range !14, !noundef !15
  %80 = trunc i8 %79 to i1
  %81 = zext i1 %80 to i8
  store i8 %81, ptr %23, align 1, !tbaa !12
  br label %82

82:                                               ; preds = %78
  br label %83

83:                                               ; preds = %82
  br label %84

84:                                               ; preds = %83
  store i64 -1, ptr %22, align 8, !tbaa !49
  store i32 10, ptr %25, align 4
  br label %90

85:                                               ; No predecessors!
  br label %86

86:                                               ; preds = %85
  br label %87

87:                                               ; preds = %86
  br label %88

88:                                               ; preds = %87
  br label %89

89:                                               ; preds = %88, %45
  store i32 0, ptr %25, align 4
  br label %90

90:                                               ; preds = %84, %89
  call void @llvm.lifetime.end.p0(i64 24, ptr %24) #6
  %91 = load i32, ptr %25, align 4
  switch i32 %91, label %136 [
    i32 0, label %92
    i32 10, label %133
  ]

92:                                               ; preds = %90
  br label %132

93:                                               ; preds = %40
  %94 = load ptr, ptr %13, align 8, !tbaa !59
  %95 = getelementptr inbounds nuw %struct.H5D_dset_io_info_t, ptr %94, i32 0, i32 3
  %96 = load ptr, ptr %95, align 8, !tbaa !54
  %97 = load i64, ptr %18, align 8, !tbaa !49
  %98 = load ptr, ptr %19, align 8, !tbaa !79
  %99 = load ptr, ptr %20, align 8, !tbaa !79
  %100 = load ptr, ptr %21, align 8, !tbaa !79
  %101 = load ptr, ptr %13, align 8, !tbaa !59
  %102 = getelementptr inbounds nuw %struct.H5D_dset_io_info_t, ptr %101, i32 0, i32 1
  %103 = load ptr, ptr %102, align 8, !tbaa !70
  %104 = getelementptr inbounds nuw %struct.H5D_compact_storage_t, ptr %103, i32 0, i32 0
  %105 = load ptr, ptr %104, align 8, !tbaa !54
  %106 = load i64, ptr %14, align 8, !tbaa !49
  %107 = load ptr, ptr %15, align 8, !tbaa !79
  %108 = load ptr, ptr %16, align 8, !tbaa !79
  %109 = load ptr, ptr %17, align 8, !tbaa !79
  %110 = call i64 @H5VM_memcpyvv(ptr noundef %96, i64 noundef %97, ptr noundef %98, ptr noundef %99, ptr noundef %100, ptr noundef %105, i64 noundef %106, ptr noundef %107, ptr noundef %108, ptr noundef %109)
  store i64 %110, ptr %22, align 8, !tbaa !49
  %111 = icmp slt i64 %110, 0
  br i1 %111, label %112, label %131

112:                                              ; preds = %93
  br label %113

113:                                              ; preds = %112
  br label %114

114:                                              ; preds = %113
  br label %115

115:                                              ; preds = %114
  %116 = load i64, ptr @H5E_IO_g, align 8, !tbaa !49
  %117 = load i64, ptr @H5E_WRITEERROR_g, align 8, !tbaa !49
  %118 = call i32 (ptr, ptr, i32, i64, i64, ptr, ...) @H5E_printf_stack(ptr noundef @.str, ptr noundef @__func__.H5D__compact_readvv, i32 noundef 395, i64 noundef %116, i64 noundef %117, ptr noundef @.str.23)
  br label %119

119:                                              ; preds = %115
  br label %120

120:                                              ; preds = %119
  store i8 1, ptr %23, align 1, !tbaa !12
  %121 = load i8, ptr %23, align 1, !tbaa !12, !range !14, !noundef !15
  %122 = trunc i8 %121 to i1
  %123 = zext i1 %122 to i8
  store i8 %123, ptr %23, align 1, !tbaa !12
  br label %124

124:                                              ; preds = %120
  br label %125

125:                                              ; preds = %124
  br label %126

126:                                              ; preds = %125
  store i64 -1, ptr %22, align 8, !tbaa !49
  br label %133

127:                                              ; No predecessors!
  br label %128

128:                                              ; preds = %127
  br label %129

129:                                              ; preds = %128
  br label %130

130:                                              ; preds = %129
  br label %131

131:                                              ; preds = %130, %93
  br label %132

132:                                              ; preds = %131, %92
  br label %133

133:                                              ; preds = %132, %90, %126
  br label %134

134:                                              ; preds = %133, %32
  %135 = load i64, ptr %22, align 8, !tbaa !49
  store i64 %135, ptr %11, align 8
  store i32 1, ptr %25, align 4
  br label %136

136:                                              ; preds = %134, %90
  call void @llvm.lifetime.end.p0(i64 1, ptr %23) #6
  call void @llvm.lifetime.end.p0(i64 8, ptr %22) #6
  %137 = load i64, ptr %11, align 8
  ret i64 %137
}